; Function Attrs: mustprogress uwtable
define noundef nonnull align 8 dereferenceable(128) ptr @_ZN6icu_757MeasureaSERKS0_(ptr noundef nonnull returned align 8 dereferenceable(128) %this, ptr noundef nonnull align 8 dereferenceable(128) %other) local_unnamed_addr #1 align 2 {
entry:
  %cmp.not = icmp eq ptr %this, %other
  br i1 %cmp.not, label %if.end12, label %if.then

if.then:                                          ; preds = %entry
  %unit = getelementptr inbounds i8, ptr %this, i64 120
  %0 = load ptr, ptr %unit, align 8
  %isnull = icmp eq ptr %0, null
  br i1 %isnull, label %delete.end, label %delete.notnull

delete.notnull:                                   ; preds = %if.then
  %vtable = load ptr, ptr %0, align 8
  %vfn = getelementptr inbounds i8, ptr %vtable, i64 8
  %1 = load ptr, ptr %vfn, align 8
  tail call void %1(ptr noundef nonnull align 8 dereferenceable(19) %0) #6
  br label %delete.end

delete.end:                                       ; preds = %delete.notnull, %if.then
  %number = getelementptr inbounds i8, ptr %other, i64 8
  %number2 = getelementptr inbounds i8, ptr %this, i64 8
  %call = tail call noundef nonnull align 8 dereferenceable(112) ptr @_ZN6icu_7511FormattableaSERKS0_(ptr noundef nonnull align 8 dereferenceable(112) %number2, ptr noundef nonnull align 8 dereferenceable(112) %number)
  %unit3 = getelementptr inbounds i8, ptr %other, i64 120
  %2 = load ptr, ptr %unit3, align 8
  %cmp4.not = icmp eq ptr %2, null
  br i1 %cmp4.not, label %if.end12.sink.split, label %if.then5

if.then5:                                         ; preds = %delete.end
  %vtable7 = load ptr, ptr %2, align 8
  %vfn8 = getelementptr inbounds i8, ptr %vtable7, i64 24
  %3 = load ptr, ptr %vfn8, align 8
  %call9 = tail call noundef ptr %3(ptr noundef nonnull align 8 dereferenceable(19) %2)
  br label %if.end12.sink.split

if.end12.sink.split:                              ; preds = %delete.end, %if.then5
  %call9.sink = phi ptr [ %call9, %if.then5 ], [ null, %delete.end ]
  store ptr %call9.sink, ptr %unit, align 8
  br label %if.end12

if.end12:                                         ; preds = %if.end12.sink.split, %entry
  ret ptr %this
}